target datalayout = "e-m:e-p270:32:32-p271:32:32-p272:64:64-i64:64-i128:128-f80:128-n8:16:32:64-S128"
target triple = "x86_64-pc-linux-gnu"

%struct.Vec_Wrd_t_ = type { i32, i32, ptr }
%struct.Gia_Man_t_ = type { ptr, ptr, i32, i32, i32, i32, ptr, ptr, i32, i32, i32, ptr, ptr, %struct.Vec_Int_t_, %struct.Vec_Int_t_, i32, i32, i32, %struct.Vec_Int_t_, ptr, ptr, ptr, i32, i32, i32, i32, ptr, ptr, ptr, ptr, ptr, i32, i32, ptr, i32, ptr, ptr, ptr, ptr, ptr, ptr, ptr, ptr, ptr, ptr, ptr, ptr, ptr, ptr, ptr, ptr, ptr, ptr, %struct.Vec_Int_t_, %struct.Vec_Int_t_, ptr, ptr, ptr, ptr, ptr, ptr, ptr, ptr, ptr, ptr, ptr, ptr, ptr, ptr, ptr, ptr, ptr, ptr, ptr, ptr, ptr, i32, float, float, ptr, ptr, i32, ptr, ptr, ptr, ptr, ptr, ptr, ptr, ptr, ptr, ptr, ptr, ptr, ptr, ptr, ptr, i64, i64, ptr, ptr, i32, i32, i32, i32, i32, i32, i32, i32, i32, i32, i32, i32, ptr, ptr, ptr, ptr, ptr, ptr, ptr, ptr, i32, i32, i32, ptr, i32, i32, ptr, ptr, ptr, ptr, ptr, ptr, i32, i32, ptr, %struct.Vec_Int_t_, %struct.Vec_Int_t_, %struct.Vec_Int_t_, ptr, ptr, ptr, i32, i32, i32, i32, ptr, ptr, ptr, ptr, ptr }
%struct.Vec_Int_t_ = type { i32, i32, ptr }

; Function Attrs: inlinehint nounwind uwtable
define internal ptr @Vec_WrdEntryP(ptr noundef %0, i32 noundef %1) #3 {
  %3 = alloca ptr, align 8
  %4 = alloca i32, align 4
  store ptr %0, ptr %3, align 8, !tbaa !3
  store i32 %1, ptr %4, align 4, !tbaa !8
  %5 = load ptr, ptr %3, align 8, !tbaa !3
  %6 = getelementptr inbounds nuw %struct.Vec_Wrd_t_, ptr %5, i32 0, i32 2
  %7 = load ptr, ptr %6, align 8, !tbaa !12
  %8 = load i32, ptr %4, align 4, !tbaa !8
  %9 = sext i32 %8 to i64
  %10 = getelementptr inbounds i64, ptr %7, i64 %9
  ret ptr %10
}

; Function Attrs: inlinehint nounwind uwtable
define internal i32 @Vec_IntSize(ptr noundef %0) #3 {
  %2 = alloca ptr, align 8
  store ptr %0, ptr %2, align 8, !tbaa !43
  %3 = load ptr, ptr %2, align 8, !tbaa !43
  %4 = getelementptr inbounds nuw %struct.Vec_Int_t_, ptr %3, i32 0, i32 1
  %5 = load i32, ptr %4, align 4, !tbaa !52
  ret i32 %5
}

; Function Attrs: inlinehint nounwind uwtable
define internal i32 @Gia_ManPiNum(ptr noundef %0) #3 {
  %2 = alloca ptr, align 8
  store ptr %0, ptr %2, align 8, !tbaa !18
  %3 = load ptr, ptr %2, align 8, !tbaa !18
  %4 = getelementptr inbounds nuw %struct.Gia_Man_t_, ptr %3, i32 0, i32 11
  %5 = load ptr, ptr %4, align 8, !tbaa !42
  %6 = call i32 @Vec_IntSize(ptr noundef %5)
  %7 = load ptr, ptr %2, align 8, !tbaa !18
  %8 = getelementptr inbounds nuw %struct.Gia_Man_t_, ptr %7, i32 0, i32 2
  %9 = load i32, ptr %8, align 8, !tbaa !49
  %10 = sub nsw i32 %6, %9
  ret i32 %10
}

; Function Attrs: inlinehint nounwind uwtable
define internal i32 @Vec_WrdSize(ptr noundef %0) #3 {
  %2 = alloca ptr, align 8
  store ptr %0, ptr %2, align 8, !tbaa !3
  %3 = load ptr, ptr %2, align 8, !tbaa !3
  %4 = getelementptr inbounds nuw %struct.Vec_Wrd_t_, ptr %3, i32 0, i32 1
  %5 = load i32, ptr %4, align 4, !tbaa !17
  ret i32 %5
}

; Function Attrs: inlinehint nounwind uwtable
define internal void @Abc_InfoSetBit(ptr noundef %0, i32 noundef %1) #3 {
  %3 = alloca ptr, align 8
  %4 = alloca i32, align 4
  store ptr %0, ptr %3, align 8, !tbaa !46
  store i32 %1, ptr %4, align 4, !tbaa !8
  %5 = load i32, ptr %4, align 4, !tbaa !8
  %6 = and i32 %5, 31
  %7 = shl i32 1, %6
  %8 = load ptr, ptr %3, align 8, !tbaa !46
  %9 = load i32, ptr %4, align 4, !tbaa !8
  %10 = ashr i32 %9, 5
  %11 = sext i32 %10 to i64
  %12 = getelementptr inbounds i32, ptr %8, i64 %11
  %13 = load i32, ptr %12, align 4, !tbaa !8
  %14 = or i32 %13, %7
  store i32 %14, ptr %12, align 4, !tbaa !8
  ret void
}

; Function Attrs: inlinehint nounwind uwtable
define internal i32 @Vec_IntEntry(ptr noundef %0, i32 noundef %1) #3 {
  %3 = alloca ptr, align 8
  %4 = alloca i32, align 4
  store ptr %0, ptr %3, align 8, !tbaa !43
  store i32 %1, ptr %4, align 4, !tbaa !8
  %5 = load ptr, ptr %3, align 8, !tbaa !43
  %6 = getelementptr inbounds nuw %struct.Vec_Int_t_, ptr %5, i32 0, i32 2
  %7 = load ptr, ptr %6, align 8, !tbaa !45
  %8 = load i32, ptr %4, align 4, !tbaa !8
  %9 = sext i32 %8 to i64
  %10 = getelementptr inbounds i32, ptr %7, i64 %9
  %11 = load i32, ptr %10, align 4, !tbaa !8
  ret i32 %11
}

; Function Attrs: inlinehint nounwind uwtable
define internal ptr @Gia_ObjSimPi(ptr noundef %0, i32 noundef %1) #3 {
  %3 = alloca ptr, align 8
  %4 = alloca i32, align 4
  store ptr %0, ptr %3, align 8, !tbaa !18
  store i32 %1, ptr %4, align 4, !tbaa !8
  %5 = load ptr, ptr %3, align 8, !tbaa !18
  %6 = getelementptr inbounds nuw %struct.Gia_Man_t_, ptr %5, i32 0, i32 115
  %7 = load ptr, ptr %6, align 8, !tbaa !39
  %8 = load i32, ptr %4, align 4, !tbaa !8
  %9 = load ptr, ptr %3, align 8, !tbaa !18
  %10 = call i32 @Gia_ObjSimWords(ptr noundef %9)
  %11 = mul nsw i32 %8, %10
  %12 = call ptr @Vec_WrdEntryP(ptr noundef %7, i32 noundef %11)
  ret ptr %12
}

; Function Attrs: nounwind uwtable
define void @Vec_WrdDoubleSimInfo(ptr noundef %0, i32 noundef %1) #0 {
  %3 = alloca ptr, align 8
  %4 = alloca i32, align 4
  %5 = alloca ptr, align 8
  %6 = alloca i32, align 4
  %7 = alloca i32, align 4
  store ptr %0, ptr %3, align 8, !tbaa !3
  store i32 %1, ptr %4, align 4, !tbaa !8
  call void @llvm.lifetime.start.p0(i64 8, ptr %5) #10
  %8 = load ptr, ptr %3, align 8, !tbaa !3
  %9 = call i32 @Vec_WrdSize(ptr noundef %8)
  %10 = mul nsw i32 2, %9
  %11 = sext i32 %10 to i64
  %12 = call noalias ptr @calloc(i64 noundef %11, i64 noundef 8) #11
  store ptr %12, ptr %5, align 8, !tbaa !10
  call void @llvm.lifetime.start.p0(i64 4, ptr %6) #10
  call void @llvm.lifetime.start.p0(i64 4, ptr %7) #10
  %13 = load ptr, ptr %3, align 8, !tbaa !3
  %14 = call i32 @Vec_WrdSize(ptr noundef %13)
  %15 = load i32, ptr %4, align 4, !tbaa !8
  %16 = sdiv i32 %14, %15
  store i32 %16, ptr %7, align 4, !tbaa !8
  store i32 0, ptr %6, align 4, !tbaa !8
  br label %17

17:                                               ; preds = %40, %2
  %18 = load i32, ptr %6, align 4, !tbaa !8
  %19 = load i32, ptr %4, align 4, !tbaa !8
  %20 = icmp slt i32 %18, %19
  br i1 %20, label %21, label %43

21:                                               ; preds = %17
  %22 = load ptr, ptr %5, align 8, !tbaa !10
  %23 = load i32, ptr %6, align 4, !tbaa !8
  %24 = mul nsw i32 2, %23
  %25 = load i32, ptr %7, align 4, !tbaa !8
  %26 = mul nsw i32 %24, %25
  %27 = sext i32 %26 to i64
  %28 = getelementptr inbounds i64, ptr %22, i64 %27
  %29 = load ptr, ptr %3, align 8, !tbaa !3
  %30 = getelementptr inbounds nuw %struct.Vec_Wrd_t_, ptr %29, i32 0, i32 2
  %31 = load ptr, ptr %30, align 8, !tbaa !12
  %32 = load i32, ptr %6, align 4, !tbaa !8
  %33 = load i32, ptr %7, align 4, !tbaa !8
  %34 = mul nsw i32 %32, %33
  %35 = sext i32 %34 to i64
  %36 = getelementptr inbounds i64, ptr %31, i64 %35
  %37 = load i32, ptr %7, align 4, !tbaa !8
  %38 = sext i32 %37 to i64
  %39 = mul i64 8, %38
  call void @llvm.memcpy.p0.p0.i64(ptr align 8 %28, ptr align 8 %36, i64 %39, i1 false)
  br label %40

40:                                               ; preds = %21
  %41 = load i32, ptr %6, align 4, !tbaa !8
  %42 = add nsw i32 %41, 1
  store i32 %42, ptr %6, align 4, !tbaa !8
  br label %17, !llvm.loop !14

43:                                               ; preds = %17
  %44 = load ptr, ptr %3, align 8, !tbaa !3
  %45 = getelementptr inbounds nuw %struct.Vec_Wrd_t_, ptr %44, i32 0, i32 2
  %46 = load ptr, ptr %45, align 8, !tbaa !12
  %47 = icmp ne ptr %46, null
  br i1 %47, label %48, label %54

48:                                               ; preds = %43
  %49 = load ptr, ptr %3, align 8, !tbaa !3
  %50 = getelementptr inbounds nuw %struct.Vec_Wrd_t_, ptr %49, i32 0, i32 2
  %51 = load ptr, ptr %50, align 8, !tbaa !12
  call void @free(ptr noundef %51) #10
  %52 = load ptr, ptr %3, align 8, !tbaa !3
  %53 = getelementptr inbounds nuw %struct.Vec_Wrd_t_, ptr %52, i32 0, i32 2
  store ptr null, ptr %53, align 8, !tbaa !12
  br label %55

54:                                               ; preds = %43
  br label %55

55:                                               ; preds = %54, %48
  %56 = load ptr, ptr %5, align 8, !tbaa !10
  %57 = load ptr, ptr %3, align 8, !tbaa !3
  %58 = getelementptr inbounds nuw %struct.Vec_Wrd_t_, ptr %57, i32 0, i32 2
  store ptr %56, ptr %58, align 8, !tbaa !12
  %59 = load i32, ptr %7, align 4, !tbaa !8
  %60 = mul nsw i32 2, %59
  %61 = load i32, ptr %4, align 4, !tbaa !8
  %62 = mul nsw i32 %60, %61
  %63 = load ptr, ptr %3, align 8, !tbaa !3
  %64 = getelementptr inbounds nuw %struct.Vec_Wrd_t_, ptr %63, i32 0, i32 0
  store i32 %62, ptr %64, align 8, !tbaa !16
  %65 = load ptr, ptr %3, align 8, !tbaa !3
  %66 = getelementptr inbounds nuw %struct.Vec_Wrd_t_, ptr %65, i32 0, i32 1
  store i32 %62, ptr %66, align 4, !tbaa !17
  call void @llvm.lifetime.end.p0(i64 4, ptr %7) #10
  call void @llvm.lifetime.end.p0(i64 4, ptr %6) #10
  call void @llvm.lifetime.end.p0(i64 8, ptr %5) #10
  ret void
}

; Function Attrs: inlinehint nounwind uwtable
define internal i32 @Gia_ManCiNum(ptr noundef %0) #3 {
  %2 = alloca ptr, align 8
  store ptr %0, ptr %2, align 8, !tbaa !18
  %3 = load ptr, ptr %2, align 8, !tbaa !18
  %4 = getelementptr inbounds nuw %struct.Gia_Man_t_, ptr %3, i32 0, i32 11
  %5 = load ptr, ptr %4, align 8, !tbaa !42
  %6 = call i32 @Vec_IntSize(ptr noundef %5)
  ret i32 %6
}

; Function Attrs: inlinehint nounwind uwtable
define internal i32 @Gia_ObjSimWords(ptr noundef %0) #3 {
  %2 = alloca ptr, align 8
  store ptr %0, ptr %2, align 8, !tbaa !18
  %3 = load ptr, ptr %2, align 8, !tbaa !18
  %4 = getelementptr inbounds nuw %struct.Gia_Man_t_, ptr %3, i32 0, i32 115
  %5 = load ptr, ptr %4, align 8, !tbaa !39
  %6 = call i32 @Vec_WrdSize(ptr noundef %5)
  %7 = load ptr, ptr %2, align 8, !tbaa !18
  %8 = call i32 @Gia_ManPiNum(ptr noundef %7)
  %9 = sdiv i32 %6, %8
  ret i32 %9
}

; Function Attrs: nounwind uwtable
define void @Ssc_GiaSavePiPattern(ptr noundef %0, ptr noundef %1) #0 {
  %3 = alloca ptr, align 8
  %4 = alloca ptr, align 8
  %5 = alloca ptr, align 8
  %6 = alloca i32, align 4
  store ptr %0, ptr %3, align 8, !tbaa !18
  store ptr %1, ptr %4, align 8, !tbaa !43
  call void @llvm.lifetime.start.p0(i64 8, ptr %5) #10
  call void @llvm.lifetime.start.p0(i64 4, ptr %6) #10
  %7 = load ptr, ptr %3, align 8, !tbaa !18
  %8 = getelementptr inbounds nuw %struct.Gia_Man_t_, ptr %7, i32 0, i32 108
  %9 = load i32, ptr %8, align 4, !tbaa !20
  %10 = load ptr, ptr %3, align 8, !tbaa !18
  %11 = call i32 @Gia_ObjSimWords(ptr noundef %10)
  %12 = mul nsw i32 64, %11
  %13 = icmp eq i32 %9, %12
  br i1 %13, label %14, label %20

14:                                               ; preds = %2
  %15 = load ptr, ptr %3, align 8, !tbaa !18
  %16 = getelementptr inbounds nuw %struct.Gia_Man_t_, ptr %15, i32 0, i32 115
  %17 = load ptr, ptr %16, align 8, !tbaa !39
  %18 = load ptr, ptr %3, align 8, !tbaa !18
  %19 = call i32 @Gia_ManCiNum(ptr noundef %18)
  call void @Vec_WrdDoubleSimInfo(ptr noundef %17, i32 noundef %19)
  br label %20

20:                                               ; preds = %14, %2
  %21 = load ptr, ptr %3, align 8, !tbaa !18
  %22 = call ptr @Gia_ObjSimPi(ptr noundef %21, i32 noundef 0)
  store ptr %22, ptr %5, align 8, !tbaa !10
  store i32 0, ptr %6, align 4, !tbaa !8
  br label %23

23:                                               ; preds = %39, %20
  %24 = load i32, ptr %6, align 4, !tbaa !8
  %25 = load ptr, ptr %3, align 8, !tbaa !18
  %26 = call i32 @Gia_ManCiNum(ptr noundef %25)
  %27 = icmp slt i32 %24, %26
  br i1 %27, label %28, label %47

28:                                               ; preds = %23
  %29 = load ptr, ptr %4, align 8, !tbaa !43
  %30 = load i32, ptr %6, align 4, !tbaa !8
  %31 = call i32 @Vec_IntEntry(ptr noundef %29, i32 noundef %30)
  %32 = icmp ne i32 %31, 0
  br i1 %32, label %33, label %38

33:                                               ; preds = %28
  %34 = load ptr, ptr %5, align 8, !tbaa !10
  %35 = load ptr, ptr %3, align 8, !tbaa !18
  %36 = getelementptr inbounds nuw %struct.Gia_Man_t_, ptr %35, i32 0, i32 108
  %37 = load i32, ptr %36, align 4, !tbaa !20
  call void @Abc_InfoSetBit(ptr noundef %34, i32 noundef %37)
  br label %38

38:                                               ; preds = %33, %28
  br label %39

39:                                               ; preds = %38
  %40 = load i32, ptr %6, align 4, !tbaa !8
  %41 = add nsw i32 %40, 1
  store i32 %41, ptr %6, align 4, !tbaa !8
  %42 = load ptr, ptr %3, align 8, !tbaa !18
  %43 = call i32 @Gia_ObjSimWords(ptr noundef %42)
  %44 = load ptr, ptr %5, align 8, !tbaa !10
  %45 = sext i32 %43 to i64
  %46 = getelementptr inbounds i64, ptr %44, i64 %45
  store ptr %46, ptr %5, align 8, !tbaa !10
  br label %23, !llvm.loop !44

47:                                               ; preds = %23
  %48 = load ptr, ptr %3, align 8, !tbaa !18
  %49 = getelementptr inbounds nuw %struct.Gia_Man_t_, ptr %48, i32 0, i32 108
  %50 = load i32, ptr %49, align 4, !tbaa !20
  %51 = add nsw i32 %50, 1
  store i32 %51, ptr %49, align 4, !tbaa !20
  call void @llvm.lifetime.end.p0(i64 4, ptr %6) #10
  call void @llvm.lifetime.end.p0(i64 8, ptr %5) #10
  ret void
}