; Function Attrs: nounwind uwtable
define void @Ssc_GiaSavePiPattern(ptr noundef captures(none) %0, ptr noundef readonly captures(none) %1) local_unnamed_addr #0 {
  %3 = getelementptr inbounds nuw i8, ptr %0, i64 812
  %4 = load i32, ptr %3, align 4, !tbaa !14
  %5 = getelementptr inbounds nuw i8, ptr %0, i64 848
  %6 = load ptr, ptr %5, align 8, !tbaa !35
  %7 = getelementptr i8, ptr %6, i64 4
  %.val.i = load i32, ptr %7, align 4, !tbaa !3
  %8 = getelementptr i8, ptr %0, i64 16
  %.val2.i = load i32, ptr %8, align 8, !tbaa !39
  %9 = getelementptr i8, ptr %0, i64 64
  %.val3.i = load ptr, ptr %9, align 8, !tbaa !36
  %10 = getelementptr i8, ptr %.val3.i, i64 4
  %.val3.val.i = load i32, ptr %10, align 4, !tbaa !37
  %11 = sub nsw i32 %.val3.val.i, %.val2.i
  %12 = sdiv i32 %.val.i, %11
  %13 = shl nsw i32 %12, 6
  %14 = icmp eq i32 %4, %13
  br i1 %14, label %15, label %38

15:                                               ; preds = %2
  %16 = shl nsw i32 %.val.i, 1
  %17 = sext i32 %16 to i64
  %18 = tail call noalias ptr @calloc(i64 noundef %17, i64 noundef 8) #13
  %19 = sdiv i32 %.val.i, %.val3.val.i
  %20 = icmp sgt i32 %.val3.val.i, 0
  br i1 %20, label %.lr.ph.i, label %.._crit_edge_crit_edge.i

.._crit_edge_crit_edge.i:                         ; preds = %15
  %.phi.trans.insert.i = getelementptr inbounds nuw i8, ptr %6, i64 8
  %.pre.i = load ptr, ptr %.phi.trans.insert.i, align 8, !tbaa !10
  br label %._crit_edge.i

.lr.ph.i:                                         ; preds = %15
  %21 = shl i32 %19, 1
  %22 = getelementptr inbounds nuw i8, ptr %6, i64 8
  %23 = load ptr, ptr %22, align 8, !tbaa !10
  %24 = sext i32 %19 to i64
  %25 = shl nsw i64 %24, 3
  %wide.trip.count.i = zext nneg i32 %.val3.val.i to i64
  br label %26

26:                                               ; preds = %26, %.lr.ph.i
  %indvars.iv.i = phi i64 [ 0, %.lr.ph.i ], [ %indvars.iv.next.i, %26 ]
  %27 = trunc nuw nsw i64 %indvars.iv.i to i32
  %28 = mul i32 %21, %27
  %29 = sext i32 %28 to i64
  %30 = getelementptr inbounds i64, ptr %18, i64 %29
  %31 = mul nsw i64 %indvars.iv.i, %24
  %32 = getelementptr inbounds i64, ptr %23, i64 %31
  tail call void @llvm.memcpy.p0.p0.i64(ptr align 8 %30, ptr align 8 %32, i64 %25, i1 false)
  %indvars.iv.next.i = add nuw nsw i64 %indvars.iv.i, 1
  %exitcond.not.i = icmp eq i64 %indvars.iv.next.i, %wide.trip.count.i
  br i1 %exitcond.not.i, label %._crit_edge.i, label %26, !llvm.loop !11

._crit_edge.i:                                    ; preds = %26, %.._crit_edge_crit_edge.i
  %33 = phi ptr [ %.pre.i, %.._crit_edge_crit_edge.i ], [ %23, %26 ]
  %.not.i = icmp eq ptr %33, null
  br i1 %.not.i, label %Vec_WrdDoubleSimInfo.exit, label %34

34:                                               ; preds = %._crit_edge.i
  tail call void @free(ptr noundef nonnull %33) #14
  %.pre.pre = load ptr, ptr %5, align 8, !tbaa !35
  %.val3.i.i.pre.pre = load ptr, ptr %9, align 8, !tbaa !36
  %.phi.trans.insert.phi.trans.insert = getelementptr i8, ptr %.val3.i.i.pre.pre, i64 4
  %.val.val23.pre.pre = load i32, ptr %.phi.trans.insert.phi.trans.insert, align 4, !tbaa !37
  br label %Vec_WrdDoubleSimInfo.exit

Vec_WrdDoubleSimInfo.exit:                        ; preds = %._crit_edge.i, %34
  %.val.val23.pre = phi i32 [ %.val3.val.i, %._crit_edge.i ], [ %.val.val23.pre.pre, %34 ]
  %.val3.i.i.pre = phi ptr [ %.val3.i, %._crit_edge.i ], [ %.val3.i.i.pre.pre, %34 ]
  %.pre = phi ptr [ %6, %._crit_edge.i ], [ %.pre.pre, %34 ]
  %35 = getelementptr inbounds nuw i8, ptr %6, i64 8
  store ptr %18, ptr %35, align 8, !tbaa !10
  %36 = shl nsw i32 %19, 1
  %37 = mul nsw i32 %36, %.val3.val.i
  store i32 %37, ptr %6, align 8, !tbaa !13
  store i32 %37, ptr %7, align 4, !tbaa !3
  br label %38

38:                                               ; preds = %Vec_WrdDoubleSimInfo.exit, %2
  %.val.val23 = phi i32 [ %.val.val23.pre, %Vec_WrdDoubleSimInfo.exit ], [ %.val3.val.i, %2 ]
  %.val3.i.i = phi ptr [ %.val3.i.i.pre, %Vec_WrdDoubleSimInfo.exit ], [ %.val3.i, %2 ]
  %39 = phi ptr [ %.pre, %Vec_WrdDoubleSimInfo.exit ], [ %6, %2 ]
  %40 = getelementptr i8, ptr %39, i64 4
  %41 = getelementptr i8, ptr %.val3.i.i, i64 4
  %42 = icmp sgt i32 %.val.val23, 0
  br i1 %42, label %.lr.ph, label %._crit_edge

.lr.ph:                                           ; preds = %38
  %43 = getelementptr i8, ptr %39, i64 8
  %.val.i18 = load ptr, ptr %43, align 8, !tbaa !10
  %44 = getelementptr i8, ptr %1, i64 8
  %.val16 = load ptr, ptr %44, align 8, !tbaa !40
  br label %45

45:                                               ; preds = %.lr.ph, %57
  %.val3.val.i2229 = phi i32 [ %.val.val23, %.lr.ph ], [ %.val3.val.i22, %57 ]
  %indvars.iv = phi i64 [ 0, %.lr.ph ], [ %indvars.iv.next, %57 ]
  %.01424 = phi ptr [ %.val.i18, %.lr.ph ], [ %61, %57 ]
  %46 = getelementptr inbounds nuw i32, ptr %.val16, i64 %indvars.iv
  %47 = load i32, ptr %46, align 4, !tbaa !41
  %.not = icmp eq i32 %47, 0
  br i1 %.not, label %57, label %48

48:                                               ; preds = %45
  %49 = load i32, ptr %3, align 4, !tbaa !14
  %50 = and i32 %49, 31
  %51 = shl nuw i32 1, %50
  %52 = ashr i32 %49, 5
  %53 = sext i32 %52 to i64
  %54 = getelementptr inbounds i32, ptr %.01424, i64 %53
  %55 = load i32, ptr %54, align 4, !tbaa !41
  %56 = or i32 %51, %55
  store i32 %56, ptr %54, align 4, !tbaa !41
  %.val3.val.i22.pre = load i32, ptr %41, align 4, !tbaa !37
  br label %57

57:                                               ; preds = %45, %48
  %.val3.val.i22 = phi i32 [ %.val3.val.i2229, %45 ], [ %.val3.val.i22.pre, %48 ]
  %indvars.iv.next = add nuw nsw i64 %indvars.iv, 1
  %.val.i19 = load i32, ptr %40, align 4, !tbaa !3
  %.val2.i20 = load i32, ptr %8, align 8, !tbaa !39
  %58 = sub nsw i32 %.val3.val.i22, %.val2.i20
  %59 = sdiv i32 %.val.i19, %58
  %60 = sext i32 %59 to i64
  %61 = getelementptr inbounds i64, ptr %.01424, i64 %60
  %62 = sext i32 %.val3.val.i22 to i64
  %63 = icmp slt i64 %indvars.iv.next, %62
  br i1 %63, label %45, label %._crit_edge, !llvm.loop !42

._crit_edge:                                      ; preds = %57, %38
  %64 = load i32, ptr %3, align 4, !tbaa !14
  %65 = add nsw i32 %64, 1
  store i32 %65, ptr %3, align 4, !tbaa !14
  ret void
}